target datalayout = "e-m:e-p270:32:32-p271:32:32-p272:64:64-i64:64-i128:128-f80:128-n8:16:32:64-S128"
target triple = "x86_64-pc-linux-gnu"

%"class.pxrInternal_v0_24__pxrReserved__::GfRange1d" = type { double, double }
%"class.pxrInternal_v0_24__pxrReserved__::GfRange1f" = type { float, float }

; Function Attrs: mustprogress nounwind uwtable
define linkonce_odr noundef float @_ZNK32pxrInternal_v0_24__pxrReserved__9GfRange1f6GetMaxEv(ptr noundef nonnull align 4 dereferenceable(8) %0) #2 comdat align 2 {
  %2 = alloca ptr, align 8
  store ptr %0, ptr %2, align 8
  %3 = load ptr, ptr %2, align 8
  %4 = getelementptr inbounds nuw %"class.pxrInternal_v0_24__pxrReserved__::GfRange1f", ptr %3, i32 0, i32 1
  %5 = load float, ptr %4, align 4
  ret float %5
}

; Function Attrs: mustprogress nounwind uwtable
define linkonce_odr noundef float @_ZNK32pxrInternal_v0_24__pxrReserved__9GfRange1f6GetMinEv(ptr noundef nonnull align 4 dereferenceable(8) %0) #2 comdat align 2 {
  %2 = alloca ptr, align 8
  store ptr %0, ptr %2, align 8
  %3 = load ptr, ptr %2, align 8
  %4 = getelementptr inbounds nuw %"class.pxrInternal_v0_24__pxrReserved__::GfRange1f", ptr %3, i32 0, i32 0
  %5 = load float, ptr %4, align 4
  ret float %5
}

; Function Attrs: mustprogress uwtable
define void @_ZN32pxrInternal_v0_24__pxrReserved__9GfRange1dC2ERKNS_9GfRange1fE(ptr noundef nonnull align 8 dereferenceable(16) %0, ptr noundef nonnull align 4 dereferenceable(8) %1) unnamed_addr #0 align 2 {
  %3 = alloca ptr, align 8
  %4 = alloca ptr, align 8
  store ptr %0, ptr %3, align 8
  store ptr %1, ptr %4, align 8
  %5 = load ptr, ptr %3, align 8
  %6 = getelementptr inbounds nuw %"class.pxrInternal_v0_24__pxrReserved__::GfRange1d", ptr %5, i32 0, i32 0
  %7 = load ptr, ptr %4, align 8
  %8 = call noundef float @_ZNK32pxrInternal_v0_24__pxrReserved__9GfRange1f6GetMinEv(ptr noundef nonnull align 4 dereferenceable(8) %7)
  %9 = fpext float %8 to double
  store double %9, ptr %6, align 8
  %10 = getelementptr inbounds nuw %"class.pxrInternal_v0_24__pxrReserved__::GfRange1d", ptr %5, i32 0, i32 1
  %11 = load ptr, ptr %4, align 8
  %12 = call noundef float @_ZNK32pxrInternal_v0_24__pxrReserved__9GfRange1f6GetMaxEv(ptr noundef nonnull align 4 dereferenceable(8) %11)
  %13 = fpext float %12 to double
  store double %13, ptr %10, align 8
  ret void
}