; Function Attrs: mustprogress nofree norecurse nosync nounwind willreturn memory(argmem: readwrite) uwtable
define void @_ZN32pxrInternal_v0_24__pxrReserved__9GfRange1dC2ERKNS_9GfRange1fE(ptr nocapture noundef nonnull writeonly align 8 dereferenceable(16) %0, ptr nocapture noundef nonnull readonly align 4 dereferenceable(8) %1) unnamed_addr #2 align 2 {
  %3 = load float, ptr %1, align 4
  %4 = fpext float %3 to double
  store double %4, ptr %0, align 8
  %5 = getelementptr inbounds nuw i8, ptr %0, i64 8
  %6 = getelementptr inbounds nuw i8, ptr %1, i64 4
  %7 = load float, ptr %6, align 4
  %8 = fpext float %7 to double
  store double %8, ptr %5, align 8
  ret void
}